target datalayout = "e-m:e-p270:32:32-p271:32:32-p272:64:64-i64:64-i128:128-f80:128-n8:16:32:64-S128"
target triple = "x86_64-pc-linux-gnu"

; Function Attrs: mustprogress uwtable
define hidden void @_Z28exec_Z3_fixedpoint_add_coverR11z3_replayer(ptr noundef nonnull align 8 dereferenceable(8) %0) #0 {
  %2 = alloca ptr, align 8
  store ptr %0, ptr %2, align 8, !tbaa !10
  %3 = load ptr, ptr %2, align 8, !tbaa !10
  %4 = call noundef ptr @_ZNK11z3_replayer7get_objEj(ptr noundef nonnull align 8 dereferenceable(8) %3, i32 noundef 0)
  %5 = load ptr, ptr %2, align 8, !tbaa !10
  %6 = call noundef ptr @_ZNK11z3_replayer7get_objEj(ptr noundef nonnull align 8 dereferenceable(8) %5, i32 noundef 1)
  %7 = load ptr, ptr %2, align 8, !tbaa !10
  %8 = call noundef i32 @_ZNK11z3_replayer7get_intEj(ptr noundef nonnull align 8 dereferenceable(8) %7, i32 noundef 2)
  %9 = load ptr, ptr %2, align 8, !tbaa !10
  %10 = call noundef ptr @_ZNK11z3_replayer7get_objEj(ptr noundef nonnull align 8 dereferenceable(8) %9, i32 noundef 3)
  %11 = load ptr, ptr %2, align 8, !tbaa !10
  %12 = call noundef ptr @_ZNK11z3_replayer7get_objEj(ptr noundef nonnull align 8 dereferenceable(8) %11, i32 noundef 4)
  call void @Z3_fixedpoint_add_cover(ptr noundef %4, ptr noundef %6, i32 noundef %8, ptr noundef %10, ptr noundef %12)
  ret void
}